(lp0
S'poi'
p1
aS'bonus'
p2
aS'exercised_stock_options'
p3
aS'total_stock_value'
p4
aS'salary'
p5
aS'deferral_payments'
p6
aS'total_payments'
p7
aS'loan_advances'
p8
aS'deferred_income'
p9
aS'expenses'
p10
aS'other'
p11
aS'long_term_incentive'
p12
aS'restricted_stock'
p13
aS'director_fees'
p14
aS'to_messages'
p15
aS'from_poi_to_this_person'
p16
aS'from_messages'
p17
aS'from_this_person_to_poi'
p18
aS'shared_receipt_with_poi'
p19
aS'percent_shared_receipt'
p20
aS'percent_from_poi_to_this_person'
p21
a.